; Function Attrs: nounwind uwtable
define hidden ptr @lexbor_str_realloc(ptr nocapture noundef %0, ptr noundef %1, i64 noundef %2) local_unnamed_addr #0 {
  %4 = load ptr, ptr %0, align 8
  %5 = tail call ptr @lexbor_mraw_realloc(ptr noundef %1, ptr noundef %4, i64 noundef %2) #15
  %6 = icmp eq ptr %5, null
  br i1 %6, label %8, label %7

7:                                                ; preds = %3
  store ptr %5, ptr %0, align 8
  br label %8

8:                                                ; preds = %3, %7
  ret ptr %5
}